target datalayout = "e-m:e-p270:32:32-p271:32:32-p272:64:64-i64:64-i128:128-f80:128-n8:16:32:64-S128"
target triple = "x86_64-unknown-linux-gnu"

%"class.Assimp::Ogre::OgreBinarySerializer" = type <{ i32, [4 x i8], ptr, i32, [4 x i8] }>
%"class.Assimp::StreamReader" = type <{ %"class.std::shared_ptr", ptr, ptr, ptr, ptr, i8, [7 x i8] }>
%"class.std::shared_ptr" = type { %"class.std::__shared_ptr" }
%"class.std::__shared_ptr" = type { ptr, %"class.std::__shared_count" }
%"class.std::__shared_count" = type { ptr }
%"class.std::__cxx11::basic_string" = type { %"struct.std::__cxx11::basic_string<char>::_Alloc_hider", i64, %union.anon }
%"struct.std::__cxx11::basic_string<char>::_Alloc_hider" = type { ptr }
%union.anon = type { i64, [8 x i8] }

@.str = private unnamed_addr constant [31 x i8] c"Invalid Ogre Mesh file header.\00", align 1
@_ZTI17DeadlyImportError = linkonce_odr constant { ptr, ptr, ptr } { ptr getelementptr inbounds (ptr, ptr @_ZTVN10__cxxabiv120__si_class_type_infoE, i64 2), ptr @_ZTS17DeadlyImportError, ptr @_ZTI15DeadlyErrorBase }, comdat, align 8
@.str.1 = private unnamed_addr constant [22 x i8] c"[MeshSerializer_v1.8]\00", align 1
@.str.2 = private unnamed_addr constant [14 x i8] c"Mesh version \00", align 1
@.str.3 = private unnamed_addr constant [86 x i8] c" not supported by this importer. Run OgreMeshUpgrader tool on the file and try again.\00", align 1
@.str.4 = private unnamed_addr constant [22 x i8] c" Supported versions: \00", align 1
@_ZN6Assimp4OgreL16MESH_VERSION_1_8E = internal constant ptr @.str.1, align 8

; Function Attrs: mustprogress nounwind uwtable
define linkonce_odr hidden noundef i64 @_ZNK6Assimp12StreamReaderILb0ELb0EE16GetRemainingSizeEv(ptr noundef nonnull align 8 dereferenceable(49) %this) #0 comdat align 2 {
entry:
  %this.addr = alloca ptr, align 8
  store ptr %this, ptr %this.addr, align 8
  %this1 = load ptr, ptr %this.addr, align 8
  %mEnd = getelementptr inbounds %"class.Assimp::StreamReader", ptr %this1, i32 0, i32 3
  %0 = load ptr, ptr %mEnd, align 8
  %mCurrent = getelementptr inbounds %"class.Assimp::StreamReader", ptr %this1, i32 0, i32 2
  %1 = load ptr, ptr %mCurrent, align 8
  %sub.ptr.lhs.cast = ptrtoint ptr %0 to i64
  %sub.ptr.rhs.cast = ptrtoint ptr %1 to i64
  %sub.ptr.sub = sub i64 %sub.ptr.lhs.cast, %sub.ptr.rhs.cast
  %conv = trunc i64 %sub.ptr.sub to i32
  %conv2 = zext i32 %conv to i64
  ret i64 %conv2
}

; Function Attrs: mustprogress nounwind uwtable
define linkonce_odr noundef zeroext i1 @_ZSteqIcSt11char_traitsIcESaIcEEbRKNSt7__cxx1112basic_stringIT_T0_T1_EEPKS5_(ptr noundef nonnull align 8 dereferenceable(32) %__lhs, ptr noundef %__rhs) #0 comdat {
entry:
  %__lhs.addr = alloca ptr, align 8
  %__rhs.addr = alloca ptr, align 8
  store ptr %__lhs, ptr %__lhs.addr, align 8
  store ptr %__rhs, ptr %__rhs.addr, align 8
  %0 = load ptr, ptr %__lhs.addr, align 8
  %1 = load ptr, ptr %__rhs.addr, align 8
  %call = call noundef i32 @_ZNKSt7__cxx1112basic_stringIcSt11char_traitsIcESaIcEE7compareEPKc(ptr noundef nonnull align 8 dereferenceable(32) %0, ptr noundef %1) #5
  %cmp = icmp eq i32 %call, 0
  ret i1 %cmp
}

; Function Attrs: mustprogress uwtable
define hidden noundef zeroext i1 @_ZNK6Assimp4Ogre20OgreBinarySerializer5AtEndEv(ptr noundef nonnull align 8 dereferenceable(20) %this) #2 align 2 {
entry:
  %this.addr = alloca ptr, align 8
  store ptr %this, ptr %this.addr, align 8
  %this1 = load ptr, ptr %this.addr, align 8
  %m_reader = getelementptr inbounds %"class.Assimp::Ogre::OgreBinarySerializer", ptr %this1, i32 0, i32 2
  %0 = load ptr, ptr %m_reader, align 8
  %call = call noundef i64 @_ZNK6Assimp12StreamReaderILb0ELb0EE16GetRemainingSizeEv(ptr noundef nonnull align 8 dereferenceable(49) %0)
  %cmp = icmp eq i64 %call, 0
  ret i1 %cmp
}

; Function Attrs: mustprogress uwtable
define linkonce_odr noundef zeroext i1 @_ZStneIcSt11char_traitsIcESaIcEEbRKNSt7__cxx1112basic_stringIT_T0_T1_EEPKS5_(ptr noundef nonnull align 8 dereferenceable(32) %__lhs, ptr noundef %__rhs) #2 comdat {
entry:
  %__lhs.addr = alloca ptr, align 8
  %__rhs.addr = alloca ptr, align 8
  store ptr %__lhs, ptr %__lhs.addr, align 8
  store ptr %__rhs, ptr %__rhs.addr, align 8
  %0 = load ptr, ptr %__lhs.addr, align 8
  %1 = load ptr, ptr %__rhs.addr, align 8
  %call = call noundef zeroext i1 @_ZSteqIcSt11char_traitsIcESaIcEEbRKNSt7__cxx1112basic_stringIT_T0_T1_EEPKS5_(ptr noundef nonnull align 8 dereferenceable(32) %0, ptr noundef %1)
  %lnot = xor i1 %call, true
  ret i1 %lnot
}

; Function Attrs: mustprogress nounwind uwtable
define linkonce_odr hidden void @_ZN6Assimp4Ogre20OgreBinarySerializerC2EPNS_12StreamReaderILb0ELb0EEENS1_9AssetModeE(ptr noundef nonnull align 8 dereferenceable(20) %this, ptr noundef %reader, i32 noundef %mode) unnamed_addr #0 comdat align 2 {
entry:
  %this.addr = alloca ptr, align 8
  %reader.addr = alloca ptr, align 8
  %mode.addr = alloca i32, align 4
  store ptr %this, ptr %this.addr, align 8
  store ptr %reader, ptr %reader.addr, align 8
  store i32 %mode, ptr %mode.addr, align 4
  %this1 = load ptr, ptr %this.addr, align 8
  %m_currentLen = getelementptr inbounds %"class.Assimp::Ogre::OgreBinarySerializer", ptr %this1, i32 0, i32 0
  store i32 0, ptr %m_currentLen, align 8
  %m_reader = getelementptr inbounds %"class.Assimp::Ogre::OgreBinarySerializer", ptr %this1, i32 0, i32 2
  %0 = load ptr, ptr %reader.addr, align 8
  store ptr %0, ptr %m_reader, align 8
  %assetMode = getelementptr inbounds %"class.Assimp::Ogre::OgreBinarySerializer", ptr %this1, i32 0, i32 3
  %1 = load i32, ptr %mode.addr, align 4
  store i32 %1, ptr %assetMode, align 8
  ret void
}

; Function Attrs: mustprogress uwtable
define hidden noundef ptr @_ZN6Assimp4Ogre20OgreBinarySerializer10ImportMeshEPNS_12StreamReaderILb0ELb0EEE(ptr noundef %stream) #2 align 2 personality ptr @__gxx_personality_v0 {
entry:
  %stream.addr = alloca ptr, align 8
  %serializer = alloca %"class.Assimp::Ogre::OgreBinarySerializer", align 8
  %id = alloca i16, align 2
  %exn.slot = alloca ptr, align 8
  %ehselector.slot = alloca i32, align 4
  %version = alloca %"class.std::__cxx11::basic_string", align 8
  %mesh = alloca ptr, align 8
  store ptr %stream, ptr %stream.addr, align 8
  %0 = load ptr, ptr %stream.addr, align 8
  call void @_ZN6Assimp4Ogre20OgreBinarySerializerC2EPNS_12StreamReaderILb0ELb0EEENS1_9AssetModeE(ptr noundef nonnull align 8 dereferenceable(20) %serializer, ptr noundef %0, i32 noundef 0)
  %call = call noundef zeroext i16 @_ZN6Assimp4Ogre20OgreBinarySerializer10ReadHeaderEb(ptr noundef nonnull align 8 dereferenceable(20) %serializer, i1 noundef zeroext false)
  store i16 %call, ptr %id, align 2
  %1 = load i16, ptr %id, align 2
  %conv = zext i16 %1 to i32
  %cmp = icmp ne i32 %conv, 4096
  br i1 %cmp, label %if.then, label %if.end

if.then:                                          ; preds = %entry
  %exception = call ptr @__cxa_allocate_exception(i64 16) #5
  invoke void @_ZN17DeadlyImportErrorC2EPKc(ptr noundef nonnull align 8 dereferenceable(16) %exception, ptr noundef @.str)
          to label %invoke.cont unwind label %lpad

invoke.cont:                                      ; preds = %if.then
  call void @__cxa_throw(ptr %exception, ptr @_ZTI17DeadlyImportError, ptr @_ZN17DeadlyImportErrorD2Ev) #16
  unreachable

lpad:                                             ; preds = %if.then
  %2 = landingpad { ptr, i32 }
          cleanup
  %3 = extractvalue { ptr, i32 } %2, 0
  store ptr %3, ptr %exn.slot, align 8
  %4 = extractvalue { ptr, i32 } %2, 1
  store i32 %4, ptr %ehselector.slot, align 4
  call void @__cxa_free_exception(ptr %exception) #5
  br label %eh.resume

if.end:                                           ; preds = %entry
  call void @_ZN6Assimp4Ogre20OgreBinarySerializer8ReadLineB5cxx11Ev(ptr sret(%"class.std::__cxx11::basic_string") align 8 %version, ptr noundef nonnull align 8 dereferenceable(20) %serializer)
  %call3 = invoke noundef zeroext i1 @_ZStneIcSt11char_traitsIcESaIcEEbRKNSt7__cxx1112basic_stringIT_T0_T1_EEPKS5_(ptr noundef nonnull align 8 dereferenceable(32) %version, ptr noundef @.str.1)
          to label %invoke.cont2 unwind label %lpad1

invoke.cont2:                                     ; preds = %if.end
  br i1 %call3, label %if.then4, label %if.end8

if.then4:                                         ; preds = %invoke.cont2
  %exception5 = call ptr @__cxa_allocate_exception(i64 16) #5
  invoke void @_ZN17DeadlyImportErrorC2IJRA14_KcRNSt7__cxx1112basic_stringIcSt11char_traitsIcESaIcEEERA86_S1_RA22_S1_RKPS1_EEEDpOT_(ptr noundef nonnull align 8 dereferenceable(16) %exception5, ptr noundef nonnull align 1 dereferenceable(14) @.str.2, ptr noundef nonnull align 8 dereferenceable(32) %version, ptr noundef nonnull align 1 dereferenceable(86) @.str.3, ptr noundef nonnull align 1 dereferenceable(22) @.str.4, ptr noundef nonnull align 8 dereferenceable(8) @_ZN6Assimp4OgreL16MESH_VERSION_1_8E)
          to label %invoke.cont7 unwind label %lpad6

invoke.cont7:                                     ; preds = %if.then4
  invoke void @__cxa_throw(ptr %exception5, ptr @_ZTI17DeadlyImportError, ptr @_ZN17DeadlyImportErrorD2Ev) #16
          to label %unreachable unwind label %lpad1

lpad1:                                            ; preds = %sw.bb, %while.body, %while.cond, %if.end8, %invoke.cont7, %if.end
  %5 = landingpad { ptr, i32 }
          cleanup
  %6 = extractvalue { ptr, i32 } %5, 0
  store ptr %6, ptr %exn.slot, align 8
  %7 = extractvalue { ptr, i32 } %5, 1
  store i32 %7, ptr %ehselector.slot, align 4
  br label %ehcleanup

lpad6:                                            ; preds = %if.then4
  %8 = landingpad { ptr, i32 }
          cleanup
  %9 = extractvalue { ptr, i32 } %8, 0
  store ptr %9, ptr %exn.slot, align 8
  %10 = extractvalue { ptr, i32 } %8, 1
  store i32 %10, ptr %ehselector.slot, align 4
  call void @__cxa_free_exception(ptr %exception5) #5
  br label %ehcleanup

if.end8:                                          ; preds = %invoke.cont2
  %call10 = invoke noalias noundef nonnull ptr @_Znwm(i64 noundef 128) #15
          to label %invoke.cont9 unwind label %lpad1

invoke.cont9:                                     ; preds = %if.end8
  invoke void @_ZN6Assimp4Ogre4MeshC1Ev(ptr noundef nonnull align 8 dereferenceable(128) %call10)
          to label %invoke.cont12 unwind label %lpad11

invoke.cont12:                                    ; preds = %invoke.cont9
  store ptr %call10, ptr %mesh, align 8
  br label %while.cond

while.cond:                                       ; preds = %sw.epilog, %invoke.cont12
  %call14 = invoke noundef zeroext i1 @_ZNK6Assimp4Ogre20OgreBinarySerializer5AtEndEv(ptr noundef nonnull align 8 dereferenceable(20) %serializer)
          to label %invoke.cont13 unwind label %lpad1

invoke.cont13:                                    ; preds = %while.cond
  %lnot = xor i1 %call14, true
  br i1 %lnot, label %while.body, label %while.end

while.body:                                       ; preds = %invoke.cont13
  %call16 = invoke noundef zeroext i16 @_ZN6Assimp4Ogre20OgreBinarySerializer10ReadHeaderEb(ptr noundef nonnull align 8 dereferenceable(20) %serializer, i1 noundef zeroext true)
          to label %invoke.cont15 unwind label %lpad1

invoke.cont15:                                    ; preds = %while.body
  store i16 %call16, ptr %id, align 2
  %11 = load i16, ptr %id, align 2
  %conv17 = zext i16 %11 to i32
  switch i32 %conv17, label %sw.epilog [
    i32 12288, label %sw.bb
  ]

lpad11:                                           ; preds = %invoke.cont9
  %12 = landingpad { ptr, i32 }
          cleanup
  %13 = extractvalue { ptr, i32 } %12, 0
  store ptr %13, ptr %exn.slot, align 8
  %14 = extractvalue { ptr, i32 } %12, 1
  store i32 %14, ptr %ehselector.slot, align 4
  call void @_ZdlPv(ptr noundef %call10) #17
  br label %ehcleanup

sw.bb:                                            ; preds = %invoke.cont15
  %15 = load ptr, ptr %mesh, align 8
  invoke void @_ZN6Assimp4Ogre20OgreBinarySerializer8ReadMeshEPNS0_4MeshE(ptr noundef nonnull align 8 dereferenceable(20) %serializer, ptr noundef %15)
          to label %invoke.cont18 unwind label %lpad1

invoke.cont18:                                    ; preds = %sw.bb
  br label %sw.epilog

sw.epilog:                                        ; preds = %invoke.cont18, %invoke.cont15
  br label %while.cond, !llvm.loop !6

while.end:                                        ; preds = %invoke.cont13
  %16 = load ptr, ptr %mesh, align 8
  call void @_ZNSt7__cxx1112basic_stringIcSt11char_traitsIcESaIcEED1Ev(ptr noundef nonnull align 8 dereferenceable(32) %version) #5
  ret ptr %16

ehcleanup:                                        ; preds = %lpad11, %lpad6, %lpad1
  call void @_ZNSt7__cxx1112basic_stringIcSt11char_traitsIcESaIcEED1Ev(ptr noundef nonnull align 8 dereferenceable(32) %version) #5
  br label %eh.resume

eh.resume:                                        ; preds = %ehcleanup, %lpad
  %exn = load ptr, ptr %exn.slot, align 8
  %sel = load i32, ptr %ehselector.slot, align 4
  %lpad.val = insertvalue { ptr, i32 } poison, ptr %exn, 0
  %lpad.val19 = insertvalue { ptr, i32 } %lpad.val, i32 %sel, 1
  resume { ptr, i32 } %lpad.val19

unreachable:                                      ; preds = %invoke.cont7
  unreachable
}