; Function Attrs: mustprogress uwtable
define hidden noundef nonnull ptr @_ZN6Assimp4Ogre20OgreBinarySerializer10ImportMeshEPNS_12StreamReaderILb0ELb0EEE(ptr noundef %stream) local_unnamed_addr #2 align 2 personality ptr @__gxx_personality_v0 {
entry:
  %serializer = alloca %"class.Assimp::Ogre::OgreBinarySerializer", align 8
  %version = alloca %"class.std::__cxx11::basic_string", align 8
  store i32 0, ptr %serializer, align 8
  %m_reader.i = getelementptr inbounds i8, ptr %serializer, i64 8
  store ptr %stream, ptr %m_reader.i, align 8
  %assetMode.i = getelementptr inbounds i8, ptr %serializer, i64 16
  store i32 0, ptr %assetMode.i, align 8
  %mCurrent.i.i.i.i = getelementptr inbounds i8, ptr %stream, i64 24
  %0 = load ptr, ptr %mCurrent.i.i.i.i, align 8
  %add.ptr.i.i.i.i = getelementptr inbounds i8, ptr %0, i64 2
  %mLimit.i.i.i.i = getelementptr inbounds i8, ptr %stream, i64 40
  %1 = load ptr, ptr %mLimit.i.i.i.i, align 8
  %cmp.i.i.i.i = icmp ugt ptr %add.ptr.i.i.i.i, %1
  br i1 %cmp.i.i.i.i, label %if.then.i.i.i.i, label %_ZN6Assimp4Ogre20OgreBinarySerializer10ReadHeaderEb.exit

if.then.i.i.i.i:                                  ; preds = %entry
  %exception.i.i.i.i = tail call ptr @__cxa_allocate_exception(i64 16) #19
  invoke void @_ZN17DeadlyImportErrorC2EPKc(ptr noundef nonnull align 8 dereferenceable(16) %exception.i.i.i.i, ptr noundef nonnull @.str.66)
          to label %invoke.cont.i.i.i.i unwind label %lpad.i.i.i.i

invoke.cont.i.i.i.i:                              ; preds = %if.then.i.i.i.i
  tail call void @__cxa_throw(ptr nonnull %exception.i.i.i.i, ptr nonnull @_ZTI17DeadlyImportError, ptr nonnull @_ZN17DeadlyImportErrorD2Ev) #20
  unreachable

common.resume:                                    ; preds = %lpad, %ehcleanup, %lpad.i.i.i.i
  %common.resume.op = phi { ptr, i32 } [ %2, %lpad.i.i.i.i ], [ %4, %lpad ], [ %.pn, %ehcleanup ]
  resume { ptr, i32 } %common.resume.op

lpad.i.i.i.i:                                     ; preds = %if.then.i.i.i.i
  %2 = landingpad { ptr, i32 }
          cleanup
  tail call void @__cxa_free_exception(ptr %exception.i.i.i.i) #19
  br label %common.resume

_ZN6Assimp4Ogre20OgreBinarySerializer10ReadHeaderEb.exit: ; preds = %entry
  %3 = load i16, ptr %0, align 1
  store ptr %add.ptr.i.i.i.i, ptr %mCurrent.i.i.i.i, align 8
  %cmp.not = icmp eq i16 %3, 4096
  br i1 %cmp.not, label %invoke.cont2, label %if.then

if.then:                                          ; preds = %_ZN6Assimp4Ogre20OgreBinarySerializer10ReadHeaderEb.exit
  %exception = tail call ptr @__cxa_allocate_exception(i64 16) #19
  invoke void @_ZN17DeadlyImportErrorC2EPKc(ptr noundef nonnull align 8 dereferenceable(16) %exception, ptr noundef nonnull @.str)
          to label %invoke.cont unwind label %lpad

invoke.cont:                                      ; preds = %if.then
  tail call void @__cxa_throw(ptr nonnull %exception, ptr nonnull @_ZTI17DeadlyImportError, ptr nonnull @_ZN17DeadlyImportErrorD2Ev) #20
  unreachable

lpad:                                             ; preds = %if.then
  %4 = landingpad { ptr, i32 }
          cleanup
  tail call void @__cxa_free_exception(ptr %exception) #19
  br label %common.resume

invoke.cont2:                                     ; preds = %_ZN6Assimp4Ogre20OgreBinarySerializer10ReadHeaderEb.exit
  call void @_ZN6Assimp4Ogre20OgreBinarySerializer8ReadLineB5cxx11Ev(ptr nonnull sret(%"class.std::__cxx11::basic_string") align 8 %version, ptr noundef nonnull align 8 dereferenceable(20) %serializer)
  %call.i.i = call noundef i32 @_ZNKSt7__cxx1112basic_stringIcSt11char_traitsIcESaIcEE7compareEPKc(ptr noundef nonnull align 8 dereferenceable(32) %version, ptr noundef nonnull @.str.1) #19
  %cmp.i.i.not = icmp eq i32 %call.i.i, 0
  br i1 %cmp.i.i.not, label %if.end8, label %if.then4

if.then4:                                         ; preds = %invoke.cont2
  %exception5 = call ptr @__cxa_allocate_exception(i64 16) #19
  invoke void @_ZN17DeadlyImportErrorC2IJRA14_KcRNSt7__cxx1112basic_stringIcSt11char_traitsIcESaIcEEERA86_S1_RA22_S1_RKPS1_EEEDpOT_(ptr noundef nonnull align 8 dereferenceable(16) %exception5, ptr noundef nonnull align 1 dereferenceable(14) @.str.2, ptr noundef nonnull align 8 dereferenceable(32) %version, ptr noundef nonnull align 1 dereferenceable(86) @.str.3, ptr noundef nonnull align 1 dereferenceable(22) @.str.4, ptr noundef nonnull align 8 dereferenceable(8) @_ZN6Assimp4OgreL16MESH_VERSION_1_8E)
          to label %invoke.cont7 unwind label %lpad6

invoke.cont7:                                     ; preds = %if.then4
  invoke void @__cxa_throw(ptr nonnull %exception5, ptr nonnull @_ZTI17DeadlyImportError, ptr nonnull @_ZN17DeadlyImportErrorD2Ev) #20
          to label %unreachable unwind label %lpad1.loopexit.split-lp

lpad1.loopexit:                                   ; preds = %while.body, %sw.bb
  %lpad.loopexit = landingpad { ptr, i32 }
          cleanup
  br label %ehcleanup

lpad1.loopexit.split-lp:                          ; preds = %invoke.cont7, %if.end8
  %lpad.loopexit.split-lp = landingpad { ptr, i32 }
          cleanup
  br label %ehcleanup

lpad6:                                            ; preds = %if.then4
  %5 = landingpad { ptr, i32 }
          cleanup
  call void @__cxa_free_exception(ptr %exception5) #19
  br label %ehcleanup

if.end8:                                          ; preds = %invoke.cont2
  %call10 = invoke noalias noundef nonnull dereferenceable(128) ptr @_Znwm(i64 noundef 128) #21
          to label %invoke.cont9 unwind label %lpad1.loopexit.split-lp

invoke.cont9:                                     ; preds = %if.end8
  invoke void @_ZN6Assimp4Ogre4MeshC1Ev(ptr noundef nonnull align 8 dereferenceable(128) %call10)
          to label %invoke.cont13.preheader unwind label %lpad11

invoke.cont13.preheader:                          ; preds = %invoke.cont9
  %mEnd.i.i7 = getelementptr inbounds i8, ptr %stream, i64 32
  %6 = load ptr, ptr %mEnd.i.i7, align 8
  %7 = load ptr, ptr %mCurrent.i.i.i.i, align 8
  %sub.ptr.lhs.cast.i.i9 = ptrtoint ptr %6 to i64
  %sub.ptr.rhs.cast.i.i10 = ptrtoint ptr %7 to i64
  %sub.ptr.sub.i.i11 = sub i64 %sub.ptr.lhs.cast.i.i9, %sub.ptr.rhs.cast.i.i10
  %conv2.i.i12 = and i64 %sub.ptr.sub.i.i11, 4294967295
  %cmp.i13 = icmp eq i64 %conv2.i.i12, 0
  br i1 %cmp.i13, label %while.end, label %while.body

while.body:                                       ; preds = %invoke.cont13.preheader, %sw.epilog
  %call16 = invoke noundef zeroext i16 @_ZN6Assimp4Ogre20OgreBinarySerializer10ReadHeaderEb(ptr noundef nonnull align 8 dereferenceable(20) %serializer, i1 noundef zeroext true)
          to label %invoke.cont15 unwind label %lpad1.loopexit

invoke.cont15:                                    ; preds = %while.body
  %cond = icmp eq i16 %call16, 12288
  br i1 %cond, label %sw.bb, label %sw.epilog

lpad11:                                           ; preds = %invoke.cont9
  %8 = landingpad { ptr, i32 }
          cleanup
  call void @_ZdlPv(ptr noundef nonnull %call10) #22
  br label %ehcleanup

sw.bb:                                            ; preds = %invoke.cont15
  invoke void @_ZN6Assimp4Ogre20OgreBinarySerializer8ReadMeshEPNS0_4MeshE(ptr noundef nonnull align 8 dereferenceable(20) %serializer, ptr noundef nonnull %call10)
          to label %sw.epilog unwind label %lpad1.loopexit

sw.epilog:                                        ; preds = %sw.bb, %invoke.cont15
  %9 = load ptr, ptr %m_reader.i, align 8
  %mEnd.i.i = getelementptr inbounds i8, ptr %9, i64 32
  %10 = load ptr, ptr %mEnd.i.i, align 8
  %mCurrent.i.i = getelementptr inbounds i8, ptr %9, i64 24
  %11 = load ptr, ptr %mCurrent.i.i, align 8
  %sub.ptr.lhs.cast.i.i = ptrtoint ptr %10 to i64
  %sub.ptr.rhs.cast.i.i = ptrtoint ptr %11 to i64
  %sub.ptr.sub.i.i = sub i64 %sub.ptr.lhs.cast.i.i, %sub.ptr.rhs.cast.i.i
  %conv2.i.i = and i64 %sub.ptr.sub.i.i, 4294967295
  %cmp.i = icmp eq i64 %conv2.i.i, 0
  br i1 %cmp.i, label %while.end, label %while.body, !llvm.loop !6

while.end:                                        ; preds = %sw.epilog, %invoke.cont13.preheader
  call void @_ZNSt7__cxx1112basic_stringIcSt11char_traitsIcESaIcEED1Ev(ptr noundef nonnull align 8 dereferenceable(32) %version) #19
  ret ptr %call10

ehcleanup:                                        ; preds = %lpad1.loopexit, %lpad1.loopexit.split-lp, %lpad11, %lpad6
  %.pn = phi { ptr, i32 } [ %5, %lpad6 ], [ %8, %lpad11 ], [ %lpad.loopexit, %lpad1.loopexit ], [ %lpad.loopexit.split-lp, %lpad1.loopexit.split-lp ]
  call void @_ZNSt7__cxx1112basic_stringIcSt11char_traitsIcESaIcEED1Ev(ptr noundef nonnull align 8 dereferenceable(32) %version) #19
  br label %common.resume

unreachable:                                      ; preds = %invoke.cont7
  unreachable
}